; Function Attrs: mustprogress uwtable
define void @_ZN8QuantLib17DigitalIborCouponC2ERKN5boost10shared_ptrINS_10IborCouponEEEdNS_8Position4TypeEbddS8_bdRKNS2_INS_18DigitalReplicationEEEb(ptr noundef nonnull align 8 dereferenceable(289) %this, ptr noundef %vtt, ptr nocapture noundef nonnull readonly align 8 dereferenceable(16) %underlying, double noundef %callStrike, i32 noundef %callPosition, i1 noundef zeroext %isCallATMIncluded, double noundef %callDigitalPayoff, double noundef %putStrike, i32 noundef %putPosition, i1 noundef zeroext %isPutATMIncluded, double noundef %putDigitalPayoff, ptr nocapture noundef nonnull readonly align 8 dereferenceable(16) %replication, i1 noundef zeroext %nakedOption) unnamed_addr #8 align 2 personality ptr @__gxx_personality_v0 {
entry:
  %ref.tmp = alloca %"class.boost::shared_ptr.51", align 8
  %agg.tmp6 = alloca %"class.boost::shared_ptr.53", align 8
  call void @llvm.lifetime.start.p0(i64 16, ptr nonnull %ref.tmp) #29
  %0 = load ptr, ptr %underlying, align 8, !tbaa !50
  store ptr %0, ptr %ref.tmp, align 8, !tbaa !52
  %pn.i = getelementptr inbounds nuw i8, ptr %ref.tmp, i64 8
  %pn3.i = getelementptr inbounds nuw i8, ptr %underlying, i64 8
  %1 = load ptr, ptr %pn3.i, align 8, !tbaa !48
  store ptr %1, ptr %pn.i, align 8, !tbaa !48
  %cmp.not.i.i = icmp eq ptr %1, null
  br i1 %cmp.not.i.i, label %_ZN5boost10shared_ptrIN8QuantLib18FloatingRateCouponEEC2INS1_10IborCouponEEERKNS0_IT_EENS_6detail24sp_enable_if_convertibleIS6_S2_E4typeE.exit, label %if.then.i.i

if.then.i.i:                                      ; preds = %entry
  %use_count_.i.i.i = getelementptr inbounds nuw i8, ptr %1, i64 8
  %2 = atomicrmw add ptr %use_count_.i.i.i, i32 1 monotonic, align 4
  br label %_ZN5boost10shared_ptrIN8QuantLib18FloatingRateCouponEEC2INS1_10IborCouponEEERKNS0_IT_EENS_6detail24sp_enable_if_convertibleIS6_S2_E4typeE.exit

_ZN5boost10shared_ptrIN8QuantLib18FloatingRateCouponEEC2INS1_10IborCouponEEERKNS0_IT_EENS_6detail24sp_enable_if_convertibleIS6_S2_E4typeE.exit: ; preds = %entry, %if.then.i.i
  %3 = load ptr, ptr %replication, align 8, !tbaa !54
  store ptr %3, ptr %agg.tmp6, align 8, !tbaa !54
  %pn.i1 = getelementptr inbounds nuw i8, ptr %agg.tmp6, i64 8
  %pn3.i2 = getelementptr inbounds nuw i8, ptr %replication, i64 8
  %4 = load ptr, ptr %pn3.i2, align 8, !tbaa !48
  store ptr %4, ptr %pn.i1, align 8, !tbaa !48
  %cmp.not.i.i3 = icmp eq ptr %4, null
  br i1 %cmp.not.i.i3, label %_ZN5boost10shared_ptrIN8QuantLib18DigitalReplicationEEC2ERKS3_.exit, label %if.then.i.i4

if.then.i.i4:                                     ; preds = %_ZN5boost10shared_ptrIN8QuantLib18FloatingRateCouponEEC2INS1_10IborCouponEEERKNS0_IT_EENS_6detail24sp_enable_if_convertibleIS6_S2_E4typeE.exit
  %use_count_.i.i.i5 = getelementptr inbounds nuw i8, ptr %4, i64 8
  %5 = atomicrmw add ptr %use_count_.i.i.i5, i32 1 monotonic, align 4
  br label %_ZN5boost10shared_ptrIN8QuantLib18DigitalReplicationEEC2ERKS3_.exit

_ZN5boost10shared_ptrIN8QuantLib18DigitalReplicationEEC2ERKS3_.exit: ; preds = %_ZN5boost10shared_ptrIN8QuantLib18FloatingRateCouponEEC2INS1_10IborCouponEEERKNS0_IT_EENS_6detail24sp_enable_if_convertibleIS6_S2_E4typeE.exit, %if.then.i.i4
  %6 = getelementptr inbounds i8, ptr %vtt, i64 8
  invoke void @_ZN8QuantLib13DigitalCouponC2ERKN5boost10shared_ptrINS_18FloatingRateCouponEEEdNS_8Position4TypeEbddS8_bdNS2_INS_18DigitalReplicationEEEb(ptr noundef nonnull align 8 dereferenceable(289) %this, ptr noundef nonnull %6, ptr noundef nonnull align 8 dereferenceable(16) %ref.tmp, double noundef %callStrike, i32 noundef %callPosition, i1 noundef zeroext %isCallATMIncluded, double noundef %callDigitalPayoff, double noundef %putStrike, i32 noundef %putPosition, i1 noundef zeroext %isPutATMIncluded, double noundef %putDigitalPayoff, ptr noundef nonnull %agg.tmp6, i1 noundef zeroext %nakedOption)
          to label %invoke.cont unwind label %lpad

invoke.cont:                                      ; preds = %_ZN5boost10shared_ptrIN8QuantLib18DigitalReplicationEEC2ERKS3_.exit
  %7 = load ptr, ptr %pn.i1, align 8, !tbaa !48
  %cmp.not.i.i7 = icmp eq ptr %7, null
  br i1 %cmp.not.i.i7, label %_ZN5boost10shared_ptrIN8QuantLib18DigitalReplicationEED2Ev.exit, label %if.then.i.i8

if.then.i.i8:                                     ; preds = %invoke.cont
  %use_count_.i.i.i9 = getelementptr inbounds nuw i8, ptr %7, i64 8
  %8 = atomicrmw sub ptr %use_count_.i.i.i9, i32 1 acq_rel, align 4
  %cmp.i.i.i = icmp eq i32 %8, 1
  br i1 %cmp.i.i.i, label %if.then.i.i.i, label %_ZN5boost10shared_ptrIN8QuantLib18DigitalReplicationEED2Ev.exit

if.then.i.i.i:                                    ; preds = %if.then.i.i8
  %vtable.i.i.i = load ptr, ptr %7, align 8, !tbaa !33
  %vfn.i.i.i = getelementptr inbounds i8, ptr %vtable.i.i.i, i64 16
  %9 = load ptr, ptr %vfn.i.i.i, align 8
  invoke void %9(ptr noundef nonnull align 8 dereferenceable(16) %7)
          to label %.noexc.i.i unwind label %terminate.lpad.i.i

.noexc.i.i:                                       ; preds = %if.then.i.i.i
  %weak_count_.i.i.i.i = getelementptr inbounds nuw i8, ptr %7, i64 12
  %10 = atomicrmw sub ptr %weak_count_.i.i.i.i, i32 1 acq_rel, align 4
  %cmp.i.i.i.i = icmp eq i32 %10, 1
  br i1 %cmp.i.i.i.i, label %if.then.i.i.i.i, label %_ZN5boost10shared_ptrIN8QuantLib18DigitalReplicationEED2Ev.exit

if.then.i.i.i.i:                                  ; preds = %.noexc.i.i
  %vtable.i.i.i.i = load ptr, ptr %7, align 8, !tbaa !33
  %vfn.i.i.i.i = getelementptr inbounds i8, ptr %vtable.i.i.i.i, i64 24
  %11 = load ptr, ptr %vfn.i.i.i.i, align 8
  invoke void %11(ptr noundef nonnull align 8 dereferenceable(16) %7)
          to label %_ZN5boost10shared_ptrIN8QuantLib18DigitalReplicationEED2Ev.exit unwind label %terminate.lpad.i.i

terminate.lpad.i.i:                               ; preds = %if.then.i.i.i.i, %if.then.i.i.i
  %12 = landingpad { ptr, i32 }
          catch ptr null
  %13 = extractvalue { ptr, i32 } %12, 0
  call void @__clang_call_terminate(ptr %13) #30
  unreachable

_ZN5boost10shared_ptrIN8QuantLib18DigitalReplicationEED2Ev.exit: ; preds = %invoke.cont, %if.then.i.i8, %.noexc.i.i, %if.then.i.i.i.i
  %14 = load ptr, ptr %pn.i, align 8, !tbaa !48
  %cmp.not.i.i11 = icmp eq ptr %14, null
  br i1 %cmp.not.i.i11, label %_ZN5boost10shared_ptrIN8QuantLib18FloatingRateCouponEED2Ev.exit, label %if.then.i.i12

if.then.i.i12:                                    ; preds = %_ZN5boost10shared_ptrIN8QuantLib18DigitalReplicationEED2Ev.exit
  %use_count_.i.i.i13 = getelementptr inbounds nuw i8, ptr %14, i64 8
  %15 = atomicrmw sub ptr %use_count_.i.i.i13, i32 1 acq_rel, align 4
  %cmp.i.i.i14 = icmp eq i32 %15, 1
  br i1 %cmp.i.i.i14, label %if.then.i.i.i15, label %_ZN5boost10shared_ptrIN8QuantLib18FloatingRateCouponEED2Ev.exit

if.then.i.i.i15:                                  ; preds = %if.then.i.i12
  %vtable.i.i.i16 = load ptr, ptr %14, align 8, !tbaa !33
  %vfn.i.i.i17 = getelementptr inbounds i8, ptr %vtable.i.i.i16, i64 16
  %16 = load ptr, ptr %vfn.i.i.i17, align 8
  invoke void %16(ptr noundef nonnull align 8 dereferenceable(16) %14)
          to label %.noexc.i.i19 unwind label %terminate.lpad.i.i18

.noexc.i.i19:                                     ; preds = %if.then.i.i.i15
  %weak_count_.i.i.i.i20 = getelementptr inbounds nuw i8, ptr %14, i64 12
  %17 = atomicrmw sub ptr %weak_count_.i.i.i.i20, i32 1 acq_rel, align 4
  %cmp.i.i.i.i21 = icmp eq i32 %17, 1
  br i1 %cmp.i.i.i.i21, label %if.then.i.i.i.i22, label %_ZN5boost10shared_ptrIN8QuantLib18FloatingRateCouponEED2Ev.exit

if.then.i.i.i.i22:                                ; preds = %.noexc.i.i19
  %vtable.i.i.i.i23 = load ptr, ptr %14, align 8, !tbaa !33
  %vfn.i.i.i.i24 = getelementptr inbounds i8, ptr %vtable.i.i.i.i23, i64 24
  %18 = load ptr, ptr %vfn.i.i.i.i24, align 8
  invoke void %18(ptr noundef nonnull align 8 dereferenceable(16) %14)
          to label %_ZN5boost10shared_ptrIN8QuantLib18FloatingRateCouponEED2Ev.exit unwind label %terminate.lpad.i.i18

terminate.lpad.i.i18:                             ; preds = %if.then.i.i.i.i22, %if.then.i.i.i15
  %19 = landingpad { ptr, i32 }
          catch ptr null
  %20 = extractvalue { ptr, i32 } %19, 0
  call void @__clang_call_terminate(ptr %20) #30
  unreachable

_ZN5boost10shared_ptrIN8QuantLib18FloatingRateCouponEED2Ev.exit: ; preds = %_ZN5boost10shared_ptrIN8QuantLib18DigitalReplicationEED2Ev.exit, %if.then.i.i12, %.noexc.i.i19, %if.then.i.i.i.i22
  call void @llvm.lifetime.end.p0(i64 16, ptr nonnull %ref.tmp) #29
  %21 = load ptr, ptr %vtt, align 8
  store ptr %21, ptr %this, align 8, !tbaa !33
  %22 = getelementptr inbounds i8, ptr %vtt, i64 176
  %23 = load ptr, ptr %22, align 8
  %vbase.offset.ptr = getelementptr i8, ptr %21, i64 -24
  %vbase.offset = load i64, ptr %vbase.offset.ptr, align 8
  %add.ptr = getelementptr inbounds i8, ptr %this, i64 %vbase.offset
  store ptr %23, ptr %add.ptr, align 8, !tbaa !33
  %24 = getelementptr inbounds i8, ptr %vtt, i64 184
  %25 = load ptr, ptr %24, align 8
  %add.ptr8 = getelementptr inbounds i8, ptr %this, i64 8
  store ptr %25, ptr %add.ptr8, align 8, !tbaa !33
  %26 = getelementptr inbounds i8, ptr %vtt, i64 192
  %27 = load ptr, ptr %26, align 8
  %vtable9 = load ptr, ptr %this, align 8, !tbaa !33
  %vbase.offset.ptr10 = getelementptr i8, ptr %vtable9, i64 -32
  %vbase.offset11 = load i64, ptr %vbase.offset.ptr10, align 8
  %add.ptr12 = getelementptr inbounds i8, ptr %this, i64 %vbase.offset11
  store ptr %27, ptr %add.ptr12, align 8, !tbaa !33
  ret void

lpad:                                             ; preds = %_ZN5boost10shared_ptrIN8QuantLib18DigitalReplicationEEC2ERKS3_.exit
  %28 = landingpad { ptr, i32 }
          cleanup
  call void @_ZN5boost10shared_ptrIN8QuantLib18DigitalReplicationEED2Ev(ptr noundef nonnull align 8 dereferenceable(16) %agg.tmp6) #29
  call void @_ZN5boost10shared_ptrIN8QuantLib18FloatingRateCouponEED2Ev(ptr noundef nonnull align 8 dereferenceable(16) %ref.tmp) #29
  call void @llvm.lifetime.end.p0(i64 16, ptr nonnull %ref.tmp) #29
  resume { ptr, i32 } %28
}